target datalayout = "e-m:e-p270:32:32-p271:32:32-p272:64:64-i64:64-i128:128-f80:128-n8:16:32:64-S128"
target triple = "x86_64-pc-linux-gnu"

@.str.4 = private unnamed_addr constant [29 x i8] c"Channel state change to IDLE\00", align 1
@.str.5 = private unnamed_addr constant [35 x i8] c"Channel state change to CONNECTING\00", align 1
@.str.6 = private unnamed_addr constant [30 x i8] c"Channel state change to READY\00", align 1
@.str.7 = private unnamed_addr constant [42 x i8] c"Channel state change to TRANSIENT_FAILURE\00", align 1
@.str.8 = private unnamed_addr constant [33 x i8] c"Channel state change to SHUTDOWN\00", align 1
@.str.9 = private unnamed_addr constant [17 x i8] c"return \22UNKNOWN\22\00", align 1
@.str.10 = private unnamed_addr constant [117 x i8] c"generated/home/dtcxzyw/WorkSpace/Projects/compilers/llvm-opt-benchmark/bench/grpc/grpc/src/core/channelz/channelz.cc\00", align 1

; Function Attrs: mustprogress uwtable
define noundef ptr @_ZN9grpc_core8channelz11ChannelNode39GetChannelConnectivityStateChangeStringE23grpc_connectivity_state(i32 noundef %0) #4 align 2 {
  %2 = alloca ptr, align 8
  %3 = alloca i32, align 4
  store i32 %0, ptr %3, align 4, !tbaa !88
  %4 = load i32, ptr %3, align 4, !tbaa !88
  switch i32 %4, label %10 [
    i32 0, label %5
    i32 1, label %6
    i32 2, label %7
    i32 3, label %8
    i32 4, label %9
  ]

5:                                                ; preds = %1
  store ptr @.str.4, ptr %2, align 8
  br label %13

6:                                                ; preds = %1
  store ptr @.str.5, ptr %2, align 8
  br label %13

7:                                                ; preds = %1
  store ptr @.str.6, ptr %2, align 8
  br label %13

8:                                                ; preds = %1
  store ptr @.str.7, ptr %2, align 8
  br label %13

9:                                                ; preds = %1
  store ptr @.str.8, ptr %2, align 8
  br label %13

10:                                               ; preds = %1
  br label %11

11:                                               ; preds = %10
  call void @gpr_unreachable_code(ptr noundef @.str.9, ptr noundef @.str.10, i32 noundef 179) #24
  unreachable

12:                                               ; No predecessors!
  unreachable

13:                                               ; preds = %9, %8, %7, %6, %5
  %14 = load ptr, ptr %2, align 8
  ret ptr %14
}