; Function Attrs: mustprogress uwtable
define noundef nonnull ptr @_ZN9grpc_core8channelz11ChannelNode39GetChannelConnectivityStateChangeStringE23grpc_connectivity_state(i32 noundef %0) local_unnamed_addr #3 align 2 {
  %2 = icmp ult i32 %0, 5
  br i1 %2, label %switch.lookup, label %3

3:                                                ; preds = %1
  tail call void @gpr_unreachable_code(ptr noundef nonnull @.str.9, ptr noundef nonnull @.str.10, i32 noundef 179) #33
  unreachable

switch.lookup:                                    ; preds = %1
  %4 = zext nneg i32 %0 to i64
  %switch.gep = getelementptr inbounds nuw [5 x ptr], ptr @switch.table._ZN9grpc_core8channelz11ChannelNode39GetChannelConnectivityStateChangeStringE23grpc_connectivity_state, i64 0, i64 %4
  %switch.load = load ptr, ptr %switch.gep, align 8
  ret ptr %switch.load
}